target datalayout = "e-m:e-p270:32:32-p271:32:32-p272:64:64-i64:64-i128:128-f80:128-n8:16:32:64-S128"
target triple = "x86_64-pc-linux-gnu"

%"class.rocksdb::cassandra::RowValue" = type { i32, i64, %"class.std::vector", i64 }
%"class.std::vector" = type { %"struct.std::_Vector_base" }
%"struct.std::_Vector_base" = type { %"struct.std::_Vector_base<std::shared_ptr<rocksdb::cassandra::ColumnBase>, std::allocator<std::shared_ptr<rocksdb::cassandra::ColumnBase>>>::_Vector_impl" }
%"struct.std::_Vector_base<std::shared_ptr<rocksdb::cassandra::ColumnBase>, std::allocator<std::shared_ptr<rocksdb::cassandra::ColumnBase>>>::_Vector_impl" = type { %"struct.std::_Vector_base<std::shared_ptr<rocksdb::cassandra::ColumnBase>, std::allocator<std::shared_ptr<rocksdb::cassandra::ColumnBase>>>::_Vector_impl_data" }
%"struct.std::_Vector_base<std::shared_ptr<rocksdb::cassandra::ColumnBase>, std::allocator<std::shared_ptr<rocksdb::cassandra::ColumnBase>>>::_Vector_impl_data" = type { ptr, ptr, ptr }

; Function Attrs: mustprogress nounwind uwtable
define noundef zeroext i1 @_ZNK7rocksdb9cassandra8RowValue11IsTombstoneEv(ptr noundef nonnull align 8 dereferenceable(48) %0) #0 align 2 {
  %2 = alloca ptr, align 8
  store ptr %0, ptr %2, align 8, !tbaa !81
  %3 = load ptr, ptr %2, align 8
  %4 = getelementptr inbounds nuw %"class.rocksdb::cassandra::RowValue", ptr %3, i32 0, i32 1
  %5 = load i64, ptr %4, align 8, !tbaa !89
  %6 = icmp sgt i64 %5, -9223372036854775808
  ret i1 %6
}

; Function Attrs: mustprogress uwtable
define noundef i64 @_ZNK7rocksdb9cassandra8RowValue16LastModifiedTimeEv(ptr noundef nonnull align 8 dereferenceable(48) %0) #1 align 2 {
  %2 = alloca i64, align 8
  %3 = alloca ptr, align 8
  store ptr %0, ptr %3, align 8, !tbaa !81
  %4 = load ptr, ptr %3, align 8
  %5 = call noundef zeroext i1 @_ZNK7rocksdb9cassandra8RowValue11IsTombstoneEv(ptr noundef nonnull align 8 dereferenceable(48) %4)
  br i1 %5, label %6, label %9

6:                                                ; preds = %1
  %7 = getelementptr inbounds nuw %"class.rocksdb::cassandra::RowValue", ptr %4, i32 0, i32 1
  %8 = load i64, ptr %7, align 8, !tbaa !89
  store i64 %8, ptr %2, align 8
  br label %12

9:                                                ; preds = %1
  %10 = getelementptr inbounds nuw %"class.rocksdb::cassandra::RowValue", ptr %4, i32 0, i32 3
  %11 = load i64, ptr %10, align 8, !tbaa !90
  store i64 %11, ptr %2, align 8
  br label %12

12:                                               ; preds = %9, %6
  %13 = load i64, ptr %2, align 8
  ret i64 %13
}