; Function Attrs: mustprogress nofree norecurse nosync nounwind willreturn memory(argmem: read) uwtable
define noundef i64 @_ZNK7rocksdb9cassandra8RowValue16LastModifiedTimeEv(ptr noundef nonnull readonly align 8 captures(none) dereferenceable(48) %0) local_unnamed_addr #2 align 2 {
  %2 = getelementptr inbounds nuw i8, ptr %0, i64 8
  %3 = load i64, ptr %2, align 8, !tbaa !94
  %.not = icmp eq i64 %3, -9223372036854775808
  %4 = getelementptr inbounds nuw i8, ptr %0, i64 40
  %.val = load i64, ptr %4, align 8
  %.0 = select i1 %.not, i64 %.val, i64 %3
  ret i64 %.0
}